; Function Attrs: nounwind uwtable
define ptr @l_Lake_JobState_logEntry(ptr noundef %0, ptr noundef %1) local_unnamed_addr #1 {
  %.val = load i32, ptr %1, align 4, !tbaa !4
  %3 = icmp eq i32 %.val, 1
  %4 = getelementptr inbounds nuw i8, ptr %1, i64 8
  %5 = load ptr, ptr %4, align 8, !tbaa !10
  br i1 %3, label %6, label %8

6:                                                ; preds = %2
  %7 = tail call ptr @lean_array_push(ptr noundef %5, ptr noundef %0) #8
  store ptr %7, ptr %4, align 8, !tbaa !10
  br label %46

8:                                                ; preds = %2
  %9 = getelementptr inbounds nuw i8, ptr %1, i64 24
  %10 = load i8, ptr %9, align 1, !tbaa !16
  %11 = getelementptr inbounds nuw i8, ptr %1, i64 16
  %12 = load ptr, ptr %11, align 8, !tbaa !10
  %13 = ptrtoint ptr %12 to i64
  %14 = and i64 %13, 1
  %.not = icmp eq i64 %14, 0
  br i1 %.not, label %15, label %lean_inc.exit23

15:                                               ; preds = %8
  %.val.i = load i32, ptr %12, align 4, !tbaa !4
  %16 = icmp sgt i32 %.val.i, 0
  br i1 %16, label %17, label %19, !prof !9

17:                                               ; preds = %15
  %18 = add nuw i32 %.val.i, 1
  store i32 %18, ptr %12, align 4, !tbaa !4
  br label %lean_inc.exit23

19:                                               ; preds = %15
  %.not.i24 = icmp eq i32 %.val.i, 0
  br i1 %.not.i24, label %lean_inc.exit23, label %20

20:                                               ; preds = %19
  tail call void @lean_inc_ref_cold(ptr noundef nonnull %12) #8
  br label %lean_inc.exit23

lean_inc.exit23:                                  ; preds = %20, %19, %17, %8
  %21 = ptrtoint ptr %5 to i64
  %22 = and i64 %21, 1
  %.not28 = icmp eq i64 %22, 0
  br i1 %.not28, label %23, label %lean_inc.exit

23:                                               ; preds = %lean_inc.exit23
  %.val.i25 = load i32, ptr %5, align 4, !tbaa !4
  %24 = icmp sgt i32 %.val.i25, 0
  br i1 %24, label %25, label %27, !prof !9

25:                                               ; preds = %23
  %26 = add nuw i32 %.val.i25, 1
  store i32 %26, ptr %5, align 4, !tbaa !4
  br label %lean_inc.exit

27:                                               ; preds = %23
  %.not.i26 = icmp eq i32 %.val.i25, 0
  br i1 %.not.i26, label %lean_inc.exit, label %28

28:                                               ; preds = %27
  tail call void @lean_inc_ref_cold(ptr noundef nonnull %5) #8
  br label %lean_inc.exit

lean_inc.exit:                                    ; preds = %28, %27, %25, %lean_inc.exit23
  %29 = ptrtoint ptr %1 to i64
  %30 = and i64 %29, 1
  %.not29 = icmp eq i64 %30, 0
  br i1 %.not29, label %31, label %lean_dec.exit

31:                                               ; preds = %lean_inc.exit
  %32 = load i32, ptr %1, align 4, !tbaa !4
  %33 = icmp sgt i32 %32, 1
  br i1 %33, label %34, label %36, !prof !9

34:                                               ; preds = %31
  %35 = add nsw i32 %32, -1
  store i32 %35, ptr %1, align 4, !tbaa !4
  br label %lean_dec.exit

36:                                               ; preds = %31
  %.not.i = icmp eq i32 %32, 0
  br i1 %.not.i, label %lean_dec.exit, label %37

37:                                               ; preds = %36
  tail call void @lean_dec_ref_cold(ptr noundef nonnull %1) #8
  br label %lean_dec.exit

lean_dec.exit:                                    ; preds = %37, %36, %34, %lean_inc.exit
  %38 = tail call ptr @lean_array_push(ptr noundef %5, ptr noundef %0) #8
  tail call void @lean_inc_heartbeat() #8
  %39 = tail call noalias ptr @mi_malloc_small(i64 noundef 32) #8
  %40 = icmp eq ptr %39, null
  br i1 %40, label %41, label %lean_alloc_ctor.exit

41:                                               ; preds = %lean_dec.exit
  tail call void @lean_internal_panic_out_of_memory() #9
  unreachable

lean_alloc_ctor.exit:                             ; preds = %lean_dec.exit
  %42 = getelementptr inbounds nuw i8, ptr %39, i64 4
  %43 = getelementptr inbounds nuw i8, ptr %39, i64 24
  store i64 0, ptr %43, align 8, !tbaa !17
  store i32 1, ptr %39, align 4, !tbaa !4
  store i32 131104, ptr %42, align 4
  %44 = getelementptr inbounds nuw i8, ptr %39, i64 8
  store ptr %38, ptr %44, align 8, !tbaa !10
  %45 = getelementptr inbounds nuw i8, ptr %39, i64 16
  store ptr %12, ptr %45, align 8, !tbaa !10
  store i8 %10, ptr %43, align 1, !tbaa !16
  br label %46

46:                                               ; preds = %lean_alloc_ctor.exit, %6
  %.0 = phi ptr [ %1, %6 ], [ %39, %lean_alloc_ctor.exit ]
  ret ptr %.0
}